; Function Attrs: mustprogress uwtable
define internal noundef zeroext i1 @_ZL37ggml_backend_cpu_device_supports_buftP19ggml_backend_deviceP24ggml_backend_buffer_type(ptr readnone captures(none) %0, ptr noundef %1) #0 personality ptr @__gxx_personality_v0 {
  %3 = tail call zeroext i1 @ggml_backend_buft_is_host(ptr noundef %1)
  br i1 %3, label %_ZL37ggml_backend_cpu_is_extra_buffer_typeP24ggml_backend_buffer_type.exit, label %4

4:                                                ; preds = %2
  %5 = load atomic i8, ptr @_ZGVZ39ggml_backend_cpu_get_extra_buffers_typevE5bufts acquire, align 8
  %6 = icmp eq i8 %5, 0
  br i1 %6, label %7, label %_Z39ggml_backend_cpu_get_extra_buffers_typev.exit.i, !prof !4

7:                                                ; preds = %4
  %8 = tail call i32 @__cxa_guard_acquire(ptr nonnull @_ZGVZ39ggml_backend_cpu_get_extra_buffers_typevE5bufts) #25
  %.not.i.i = icmp eq i32 %8, 0
  br i1 %.not.i.i, label %_Z39ggml_backend_cpu_get_extra_buffers_typev.exit.i, label %9

9:                                                ; preds = %7
  invoke fastcc void @"_ZZ39ggml_backend_cpu_get_extra_buffers_typevENK3$_0clEv"()
          to label %10 unwind label %12

10:                                               ; preds = %9
  %11 = tail call i32 @__cxa_atexit(ptr nonnull @_ZNSt6vectorIP24ggml_backend_buffer_typeSaIS1_EED2Ev, ptr nonnull @_ZZ39ggml_backend_cpu_get_extra_buffers_typevE5bufts, ptr nonnull @__dso_handle) #25
  tail call void @__cxa_guard_release(ptr nonnull @_ZGVZ39ggml_backend_cpu_get_extra_buffers_typevE5bufts) #25
  br label %_Z39ggml_backend_cpu_get_extra_buffers_typev.exit.i

12:                                               ; preds = %9
  %13 = landingpad { ptr, i32 }
          cleanup
  tail call void @__cxa_guard_abort(ptr nonnull @_ZGVZ39ggml_backend_cpu_get_extra_buffers_typevE5bufts) #25
  resume { ptr, i32 } %13

_Z39ggml_backend_cpu_get_extra_buffers_typev.exit.i: ; preds = %10, %7, %4
  %14 = load ptr, ptr @_ZZ39ggml_backend_cpu_get_extra_buffers_typevE5bufts, align 8, !tbaa !89
  %15 = load ptr, ptr getelementptr inbounds nuw (i8, ptr @_ZZ39ggml_backend_cpu_get_extra_buffers_typevE5bufts, i64 8), align 8, !tbaa !89
  %.not1314.not.i = icmp eq ptr %14, %15
  br i1 %.not1314.not.i, label %_ZL37ggml_backend_cpu_is_extra_buffer_typeP24ggml_backend_buffer_type.exit, label %.critedge.i

.critedge.i:                                      ; preds = %_Z39ggml_backend_cpu_get_extra_buffers_typev.exit.i, %.critedge.i
  %.sroa.010.015.i = phi ptr [ %18, %.critedge.i ], [ %14, %_Z39ggml_backend_cpu_get_extra_buffers_typev.exit.i ]
  %16 = load ptr, ptr %.sroa.010.015.i, align 8, !tbaa !13
  %.not.i = icmp ne ptr %16, null
  %17 = icmp eq ptr %16, %1
  %or.cond.i = and i1 %.not.i, %17
  %18 = getelementptr inbounds nuw i8, ptr %.sroa.010.015.i, i64 8
  %.not13.not.i = icmp eq ptr %18, %15
  %or.cond = select i1 %or.cond.i, i1 true, i1 %.not13.not.i
  br i1 %or.cond, label %_ZL37ggml_backend_cpu_is_extra_buffer_typeP24ggml_backend_buffer_type.exit, label %.critedge.i

_ZL37ggml_backend_cpu_is_extra_buffer_typeP24ggml_backend_buffer_type.exit: ; preds = %.critedge.i, %_Z39ggml_backend_cpu_get_extra_buffers_typev.exit.i, %2
  %19 = phi i1 [ true, %2 ], [ false, %_Z39ggml_backend_cpu_get_extra_buffers_typev.exit.i ], [ %or.cond.i, %.critedge.i ]
  ret i1 %19
}